target datalayout = "e-m:e-p270:32:32-p271:32:32-p272:64:64-i64:64-i128:128-f80:128-n8:16:32:64-S128"
target triple = "x86_64-pc-linux-gnu"

%struct.Ivy_Man_t_ = type { ptr, ptr, ptr, ptr, ptr, %struct.Ivy_Obj_t_, [8 x i32], i32, i32, ptr, i32, i32, i32, i32, ptr, i32, ptr, ptr, ptr, i32, ptr, ptr, ptr, i64, i64 }
%struct.Ivy_Obj_t_ = type { i32, i32, i32, i32, ptr, ptr, ptr, ptr, ptr, ptr, ptr, ptr }

; Function Attrs: inlinehint nounwind uwtable
define internal i32 @Ivy_ObjId(ptr noundef %0) #1 {
  %2 = alloca ptr, align 8
  store ptr %0, ptr %2, align 8, !tbaa !8
  %3 = load ptr, ptr %2, align 8, !tbaa !8
  %4 = getelementptr inbounds nuw %struct.Ivy_Obj_t_, ptr %3, i32 0, i32 0
  %5 = load i32, ptr %4, align 8, !tbaa !18
  ret i32 %5
}

; Function Attrs: inlinehint nounwind uwtable
define internal ptr @Ivy_Regular(ptr noundef %0) #1 {
  %2 = alloca ptr, align 8
  store ptr %0, ptr %2, align 8, !tbaa !8
  %3 = load ptr, ptr %2, align 8, !tbaa !8
  %4 = ptrtoint ptr %3 to i64
  %5 = and i64 %4, -2
  %6 = inttoptr i64 %5 to ptr
  ret ptr %6
}

; Function Attrs: inlinehint nounwind uwtable
define internal i32 @Ivy_ObjFaninId1(ptr noundef %0) #1 {
  %2 = alloca ptr, align 8
  store ptr %0, ptr %2, align 8, !tbaa !8
  %3 = load ptr, ptr %2, align 8, !tbaa !8
  %4 = getelementptr inbounds nuw %struct.Ivy_Obj_t_, ptr %3, i32 0, i32 5
  %5 = load ptr, ptr %4, align 8, !tbaa !20
  %6 = icmp ne ptr %5, null
  br i1 %6, label %7, label %13

7:                                                ; preds = %1
  %8 = load ptr, ptr %2, align 8, !tbaa !8
  %9 = getelementptr inbounds nuw %struct.Ivy_Obj_t_, ptr %8, i32 0, i32 5
  %10 = load ptr, ptr %9, align 8, !tbaa !20
  %11 = call ptr @Ivy_Regular(ptr noundef %10)
  %12 = call i32 @Ivy_ObjId(ptr noundef %11)
  br label %14

13:                                               ; preds = %1
  br label %14

14:                                               ; preds = %13, %7
  %15 = phi i32 [ %12, %7 ], [ 0, %13 ]
  ret i32 %15
}

; Function Attrs: inlinehint nounwind uwtable
define internal i32 @Ivy_ObjFaninId0(ptr noundef %0) #1 {
  %2 = alloca ptr, align 8
  store ptr %0, ptr %2, align 8, !tbaa !8
  %3 = load ptr, ptr %2, align 8, !tbaa !8
  %4 = getelementptr inbounds nuw %struct.Ivy_Obj_t_, ptr %3, i32 0, i32 4
  %5 = load ptr, ptr %4, align 8, !tbaa !19
  %6 = icmp ne ptr %5, null
  br i1 %6, label %7, label %13

7:                                                ; preds = %1
  %8 = load ptr, ptr %2, align 8, !tbaa !8
  %9 = getelementptr inbounds nuw %struct.Ivy_Obj_t_, ptr %8, i32 0, i32 4
  %10 = load ptr, ptr %9, align 8, !tbaa !19
  %11 = call ptr @Ivy_Regular(ptr noundef %10)
  %12 = call i32 @Ivy_ObjId(ptr noundef %11)
  br label %14

13:                                               ; preds = %1
  br label %14

14:                                               ; preds = %13, %7
  %15 = phi i32 [ %12, %7 ], [ 0, %13 ]
  ret i32 %15
}

; Function Attrs: inlinehint nounwind uwtable
define internal ptr @Ivy_ManGhost(ptr noundef %0) #1 {
  %2 = alloca ptr, align 8
  store ptr %0, ptr %2, align 8, !tbaa !3
  %3 = load ptr, ptr %2, align 8, !tbaa !3
  %4 = getelementptr inbounds nuw %struct.Ivy_Man_t_, ptr %3, i32 0, i32 5
  ret ptr %4
}

; Function Attrs: inlinehint nounwind uwtable
define internal ptr @Ivy_ObjCreateGhost(ptr noundef %0, ptr noundef %1, ptr noundef %2, i32 noundef %3, i32 noundef %4) #1 {
  %6 = alloca ptr, align 8
  %7 = alloca ptr, align 8
  %8 = alloca ptr, align 8
  %9 = alloca i32, align 4
  %10 = alloca i32, align 4
  %11 = alloca ptr, align 8
  %12 = alloca ptr, align 8
  store ptr %0, ptr %6, align 8, !tbaa !3
  store ptr %1, ptr %7, align 8, !tbaa !8
  store ptr %2, ptr %8, align 8, !tbaa !8
  store i32 %3, ptr %9, align 4, !tbaa !24
  store i32 %4, ptr %10, align 4, !tbaa !24
  call void @llvm.lifetime.start.p0(i64 8, ptr %11) #8
  call void @llvm.lifetime.start.p0(i64 8, ptr %12) #8
  %13 = load ptr, ptr %6, align 8, !tbaa !3
  %14 = call ptr @Ivy_ManGhost(ptr noundef %13)
  store ptr %14, ptr %11, align 8, !tbaa !8
  %15 = load i32, ptr %9, align 4, !tbaa !24
  %16 = load ptr, ptr %11, align 8, !tbaa !8
  %17 = getelementptr inbounds nuw %struct.Ivy_Obj_t_, ptr %16, i32 0, i32 2
  %18 = load i32, ptr %17, align 8
  %19 = and i32 %15, 15
  %20 = and i32 %18, -16
  %21 = or i32 %20, %19
  store i32 %21, ptr %17, align 8
  %22 = load i32, ptr %10, align 4, !tbaa !24
  %23 = load ptr, ptr %11, align 8, !tbaa !8
  %24 = getelementptr inbounds nuw %struct.Ivy_Obj_t_, ptr %23, i32 0, i32 2
  %25 = load i32, ptr %24, align 8
  %26 = and i32 %22, 3
  %27 = shl i32 %26, 9
  %28 = and i32 %25, -1537
  %29 = or i32 %28, %27
  store i32 %29, ptr %24, align 8
  %30 = load ptr, ptr %7, align 8, !tbaa !8
  %31 = load ptr, ptr %11, align 8, !tbaa !8
  %32 = getelementptr inbounds nuw %struct.Ivy_Obj_t_, ptr %31, i32 0, i32 4
  store ptr %30, ptr %32, align 8, !tbaa !19
  %33 = load ptr, ptr %8, align 8, !tbaa !8
  %34 = load ptr, ptr %11, align 8, !tbaa !8
  %35 = getelementptr inbounds nuw %struct.Ivy_Obj_t_, ptr %34, i32 0, i32 5
  store ptr %33, ptr %35, align 8, !tbaa !20
  %36 = load ptr, ptr %8, align 8, !tbaa !8
  %37 = icmp ne ptr %36, null
  br i1 %37, label %38, label %56

38:                                               ; preds = %5
  %39 = load ptr, ptr %11, align 8, !tbaa !8
  %40 = call i32 @Ivy_ObjFaninId0(ptr noundef %39)
  %41 = load ptr, ptr %11, align 8, !tbaa !8
  %42 = call i32 @Ivy_ObjFaninId1(ptr noundef %41)
  %43 = icmp sgt i32 %40, %42
  br i1 %43, label %44, label %56

44:                                               ; preds = %38
  %45 = load ptr, ptr %11, align 8, !tbaa !8
  %46 = getelementptr inbounds nuw %struct.Ivy_Obj_t_, ptr %45, i32 0, i32 4
  %47 = load ptr, ptr %46, align 8, !tbaa !19
  store ptr %47, ptr %12, align 8, !tbaa !8
  %48 = load ptr, ptr %11, align 8, !tbaa !8
  %49 = getelementptr inbounds nuw %struct.Ivy_Obj_t_, ptr %48, i32 0, i32 5
  %50 = load ptr, ptr %49, align 8, !tbaa !20
  %51 = load ptr, ptr %11, align 8, !tbaa !8
  %52 = getelementptr inbounds nuw %struct.Ivy_Obj_t_, ptr %51, i32 0, i32 4
  store ptr %50, ptr %52, align 8, !tbaa !19
  %53 = load ptr, ptr %12, align 8, !tbaa !8
  %54 = load ptr, ptr %11, align 8, !tbaa !8
  %55 = getelementptr inbounds nuw %struct.Ivy_Obj_t_, ptr %54, i32 0, i32 5
  store ptr %53, ptr %55, align 8, !tbaa !20
  br label %56

56:                                               ; preds = %44, %38, %5
  %57 = load ptr, ptr %11, align 8, !tbaa !8
  call void @llvm.lifetime.end.p0(i64 8, ptr %12) #8
  call void @llvm.lifetime.end.p0(i64 8, ptr %11) #8
  ret ptr %57
}

; Function Attrs: nounwind uwtable
define ptr @Ivy_ObjCreatePi(ptr noundef %0) #0 {
  %2 = alloca ptr, align 8
  store ptr %0, ptr %2, align 8, !tbaa !3
  %3 = load ptr, ptr %2, align 8, !tbaa !3
  %4 = load ptr, ptr %2, align 8, !tbaa !3
  %5 = call ptr @Ivy_ObjCreateGhost(ptr noundef %4, ptr noundef null, ptr noundef null, i32 noundef 1, i32 noundef 0)
  %6 = call ptr @Ivy_ObjCreate(ptr noundef %3, ptr noundef %5)
  ret ptr %6
}