; Function Attrs: nounwind uwtable
define noundef ptr @Ivy_ObjCreatePi(ptr noundef initializes((56, 72)) %0) local_unnamed_addr #0 {
  %2 = getelementptr inbounds nuw i8, ptr %0, i64 40
  %3 = getelementptr inbounds nuw i8, ptr %0, i64 48
  %4 = load i32, ptr %3, align 8
  %5 = and i32 %4, -1552
  %6 = or disjoint i32 %5, 1
  store i32 %6, ptr %3, align 8
  %7 = getelementptr inbounds nuw i8, ptr %0, i64 56
  tail call void @llvm.memset.p0.i64(ptr noundef nonnull align 8 dereferenceable(16) %7, i8 0, i64 16, i1 false)
  %8 = tail call ptr @Ivy_ObjCreate(ptr noundef %0, ptr noundef nonnull %2)
  ret ptr %8
}